target datalayout = "e-m:e-p270:32:32-p271:32:32-p272:64:64-i64:64-i128:128-f80:128-n8:16:32:64-S128"
target triple = "x86_64-pc-linux-gnu"

%"struct.open3d::core::TensorRef" = type { ptr, i64, i64, [5 x i64], [5 x i64] }
%"class.open3d::core::Indexer" = type <{ i64, i64, [5 x %"struct.open3d::core::TensorRef"], [2 x %"struct.open3d::core::TensorRef"], [5 x i8], [2 x i8], i8, [5 x i64], [5 x i64], i64, i8, i8, [6 x i8] }>

; Function Attrs: mustprogress nounwind ssp uwtable
define noundef i64 @_ZNK6open3d4core7Indexer12NumWorkloadsEv(ptr noundef nonnull align 8 dereferenceable(842) %0) #4 align 2 {
  %2 = alloca ptr, align 8
  %3 = alloca i64, align 8
  %4 = alloca i64, align 8
  store ptr %0, ptr %2, align 8, !tbaa !4
  %5 = load ptr, ptr %2, align 8
  call void @llvm.lifetime.start.p0(i64 8, ptr %3) #27
  store i64 1, ptr %3, align 8, !tbaa !32
  call void @llvm.lifetime.start.p0(i64 8, ptr %4) #27
  store i64 0, ptr %4, align 8, !tbaa !32
  br label %6

6:                                                ; preds = %19, %1
  %7 = load i64, ptr %4, align 8, !tbaa !32
  %8 = getelementptr inbounds nuw %"class.open3d::core::Indexer", ptr %5, i32 0, i32 9
  %9 = load i64, ptr %8, align 8, !tbaa !29
  %10 = icmp slt i64 %7, %9
  br i1 %10, label %12, label %11

11:                                               ; preds = %6
  call void @llvm.lifetime.end.p0(i64 8, ptr %4) #27
  br label %22

12:                                               ; preds = %6
  %13 = getelementptr inbounds nuw %"class.open3d::core::Indexer", ptr %5, i32 0, i32 7
  %14 = load i64, ptr %4, align 8, !tbaa !32
  %15 = getelementptr inbounds [5 x i64], ptr %13, i64 0, i64 %14
  %16 = load i64, ptr %15, align 8, !tbaa !32
  %17 = load i64, ptr %3, align 8, !tbaa !32
  %18 = mul nsw i64 %17, %16
  store i64 %18, ptr %3, align 8, !tbaa !32
  br label %19

19:                                               ; preds = %12
  %20 = load i64, ptr %4, align 8, !tbaa !32
  %21 = add nsw i64 %20, 1
  store i64 %21, ptr %4, align 8, !tbaa !32
  br label %6, !llvm.loop !877

22:                                               ; preds = %11
  %23 = load i64, ptr %3, align 8, !tbaa !32
  call void @llvm.lifetime.end.p0(i64 8, ptr %3) #27
  ret i64 %23
}