; Function Attrs: mustprogress nofree norecurse nosync nounwind ssp willreturn memory(argmem: read) uwtable
define noundef i64 @_ZNK6open3d4core7Indexer12NumWorkloadsEv(ptr noundef nonnull readonly align 8 captures(none) dereferenceable(842) %0) local_unnamed_addr #26 align 2 {
  %2 = getelementptr inbounds nuw i8, ptr %0, i64 832
  %3 = load i64, ptr %2, align 8, !tbaa !31
  %4 = icmp sgt i64 %3, 0
  br i1 %4, label %.lr.ph, label %._crit_edge

.lr.ph:                                           ; preds = %1
  %5 = getelementptr inbounds nuw i8, ptr %0, i64 752
  br label %6

._crit_edge:                                      ; preds = %6, %1
  %.05.lcssa = phi i64 [ 1, %1 ], [ %9, %6 ]
  ret i64 %.05.lcssa

6:                                                ; preds = %.lr.ph, %6
  %.07 = phi i64 [ 0, %.lr.ph ], [ %10, %6 ]
  %.056 = phi i64 [ 1, %.lr.ph ], [ %9, %6 ]
  %7 = getelementptr inbounds nuw [5 x i64], ptr %5, i64 0, i64 %.07
  %8 = load i64, ptr %7, align 8, !tbaa !42
  %9 = mul nsw i64 %8, %.056
  %10 = add nuw nsw i64 %.07, 1
  %exitcond.not = icmp eq i64 %10, %3
  br i1 %exitcond.not, label %._crit_edge, label %6, !llvm.loop !713
}